target datalayout = "e-m:e-p270:32:32-p271:32:32-p272:64:64-i64:64-i128:128-f80:128-n8:16:32:64-S128"
target triple = "x86_64-pc-linux-gnu"

@hf_acn_expiry = internal global i32 0, align 4
@hf_acn_nak_holdoff = internal global i32 0, align 4
@hf_acn_nak_max_wait = internal global i32 0, align 4
@hf_acn_nak_modulus = internal global i32 0, align 4
@hf_acn_nak_outbound_flag = internal global i32 0, align 4
@ett_acn_channel_parameter = internal global i32 0, align 4
@.str.1907 = private unnamed_addr constant [24 x i8] c"Channel Parameter Block\00", align 1

; Function Attrs: null_pointer_is_valid sspstrong uwtable
define internal i32 @acn_add_channel_parameter(ptr noundef %0, ptr noundef %1, ptr noundef %2, i32 noundef %3) #0 {
  %5 = alloca ptr, align 8
  %6 = alloca ptr, align 8
  %7 = alloca ptr, align 8
  %8 = alloca i32, align 4
  %9 = alloca ptr, align 8
  store ptr %0, ptr %5, align 8
  store ptr %1, ptr %6, align 8
  store ptr %2, ptr %7, align 8
  store i32 %3, ptr %8, align 4
  call void @llvm.lifetime.start.p0(i64 8, ptr %9) #7
  %10 = load ptr, ptr %7, align 8
  %11 = load ptr, ptr %5, align 8
  %12 = load i32, ptr %8, align 4
  %13 = load i32, ptr @ett_acn_channel_parameter, align 4
  %14 = call ptr @proto_tree_add_subtree(ptr noundef %10, ptr noundef %11, i32 noundef %12, i32 noundef 8, i32 noundef %13, ptr noundef null, ptr noundef @.str.1907)
  store ptr %14, ptr %9, align 8
  %15 = load ptr, ptr %9, align 8
  %16 = load i32, ptr @hf_acn_expiry, align 4
  %17 = load ptr, ptr %5, align 8
  %18 = load i32, ptr %8, align 4
  %19 = call ptr @proto_tree_add_item(ptr noundef %15, i32 noundef %16, ptr noundef %17, i32 noundef %18, i32 noundef 1, i32 noundef 0)
  %20 = load i32, ptr %8, align 4
  %21 = add i32 %20, 1
  store i32 %21, ptr %8, align 4
  %22 = load ptr, ptr %9, align 8
  %23 = load i32, ptr @hf_acn_nak_outbound_flag, align 4
  %24 = load ptr, ptr %5, align 8
  %25 = load i32, ptr %8, align 4
  %26 = call ptr @proto_tree_add_item(ptr noundef %22, i32 noundef %23, ptr noundef %24, i32 noundef %25, i32 noundef 1, i32 noundef 0)
  %27 = load i32, ptr %8, align 4
  %28 = add i32 %27, 1
  store i32 %28, ptr %8, align 4
  %29 = load ptr, ptr %9, align 8
  %30 = load i32, ptr @hf_acn_nak_holdoff, align 4
  %31 = load ptr, ptr %5, align 8
  %32 = load i32, ptr %8, align 4
  %33 = call ptr @proto_tree_add_item(ptr noundef %29, i32 noundef %30, ptr noundef %31, i32 noundef %32, i32 noundef 2, i32 noundef 0)
  %34 = load i32, ptr %8, align 4
  %35 = add i32 %34, 2
  store i32 %35, ptr %8, align 4
  %36 = load ptr, ptr %9, align 8
  %37 = load i32, ptr @hf_acn_nak_modulus, align 4
  %38 = load ptr, ptr %5, align 8
  %39 = load i32, ptr %8, align 4
  %40 = call ptr @proto_tree_add_item(ptr noundef %36, i32 noundef %37, ptr noundef %38, i32 noundef %39, i32 noundef 2, i32 noundef 0)
  %41 = load i32, ptr %8, align 4
  %42 = add i32 %41, 2
  store i32 %42, ptr %8, align 4
  %43 = load ptr, ptr %9, align 8
  %44 = load i32, ptr @hf_acn_nak_max_wait, align 4
  %45 = load ptr, ptr %5, align 8
  %46 = load i32, ptr %8, align 4
  %47 = call ptr @proto_tree_add_item(ptr noundef %43, i32 noundef %44, ptr noundef %45, i32 noundef %46, i32 noundef 2, i32 noundef 0)
  %48 = load i32, ptr %8, align 4
  %49 = add i32 %48, 2
  store i32 %49, ptr %8, align 4
  %50 = load i32, ptr %8, align 4
  call void @llvm.lifetime.end.p0(i64 8, ptr %9) #7
  ret i32 %50
}