; Function Attrs: null_pointer_is_valid sspstrong uwtable
define internal fastcc noundef i32 @acn_add_channel_parameter(ptr noundef %0, ptr noundef %1, i32 noundef %2) unnamed_addr #0 {
  %4 = load i32, ptr @ett_acn_channel_parameter, align 4
  %5 = tail call ptr @proto_tree_add_subtree(ptr noundef %1, ptr noundef %0, i32 noundef %2, i32 noundef 8, i32 noundef %4, ptr noundef null, ptr noundef nonnull @.str.1907)
  %6 = load i32, ptr @hf_acn_expiry, align 4
  %7 = tail call ptr @proto_tree_add_item(ptr noundef %5, i32 noundef %6, ptr noundef %0, i32 noundef %2, i32 noundef 1, i32 noundef 0)
  %8 = add i32 %2, 1
  %9 = load i32, ptr @hf_acn_nak_outbound_flag, align 4
  %10 = tail call ptr @proto_tree_add_item(ptr noundef %5, i32 noundef %9, ptr noundef %0, i32 noundef %8, i32 noundef 1, i32 noundef 0)
  %11 = add i32 %2, 2
  %12 = load i32, ptr @hf_acn_nak_holdoff, align 4
  %13 = tail call ptr @proto_tree_add_item(ptr noundef %5, i32 noundef %12, ptr noundef %0, i32 noundef %11, i32 noundef 2, i32 noundef 0)
  %14 = add i32 %2, 4
  %15 = load i32, ptr @hf_acn_nak_modulus, align 4
  %16 = tail call ptr @proto_tree_add_item(ptr noundef %5, i32 noundef %15, ptr noundef %0, i32 noundef %14, i32 noundef 2, i32 noundef 0)
  %17 = add i32 %2, 6
  %18 = load i32, ptr @hf_acn_nak_max_wait, align 4
  %19 = tail call ptr @proto_tree_add_item(ptr noundef %5, i32 noundef %18, ptr noundef %0, i32 noundef %17, i32 noundef 2, i32 noundef 0)
  %20 = add i32 %2, 8
  ret i32 %20
}